; ModuleID = '48/60.c'
source_filename = "48/60.c"
target datalayout = "e-m:e-p270:32:32-p271:32:32-p272:64:64-i64:64-f80:128-n8:16:32:64-S128"
target triple = "x86_64-pc-linux-gnu"

@.str = private unnamed_addr constant [5 x i8] c"%d%d\00", align 1
@.str.1 = private unnamed_addr constant [4 x i8] c"%d \00", align 1
@.str.2 = private unnamed_addr constant [4 x i8] c"%d\0A\00", align 1

; Function Attrs: noinline nounwind uwtable
define dso_local i32 @main() #0 {
  %1 = alloca i32, align 4
  %2 = alloca [5 x [11 x [11 x i32]]], align 16
  %3 = alloca i32, align 4
  %4 = alloca i32, align 4
  %5 = alloca i32, align 4
  %6 = alloca i32, align 4
  %7 = alloca i32, align 4
  %8 = alloca i32, align 4
  %9 = alloca i32, align 4
  store i32 0, i32* %1, align 4
  %10 = bitcast [5 x [11 x [11 x i32]]]* %2 to i8*
  call void @llvm.memset.p0i8.i64(i8* align 16 %10, i8 0, i64 2420, i1 false)
  %11 = call i32 (i8*, ...) @__isoc99_scanf(i8* getelementptr inbounds ([5 x i8], [5 x i8]* @.str, i64 0, i64 0), i32* %3, i32* %4)
  %12 = load i32, i32* %3, align 4
  %13 = getelementptr inbounds [5 x [11 x [11 x i32]]], [5 x [11 x [11 x i32]]]* %2, i64 0, i64 0
  %14 = getelementptr inbounds [11 x [11 x i32]], [11 x [11 x i32]]* %13, i64 0, i64 5
  %15 = getelementptr inbounds [11 x i32], [11 x i32]* %14, i64 0, i64 5
  store i32 %12, i32* %15, align 4
  store i32 1, i32* %7, align 4
  br label %16

16:                                               ; preds = %105, %0
  %17 = load i32, i32* %7, align 4
  %18 = load i32, i32* %4, align 4
  %19 = icmp sle i32 %17, %18
  br i1 %19, label %20, label %108

20:                                               ; preds = %16
  store i32 1, i32* %5, align 4
  br label %21

21:                                               ; preds = %101, %20
  %22 = load i32, i32* %5, align 4
  %23 = icmp sle i32 %22, 9
  br i1 %23, label %24, label %104

24:                                               ; preds = %21
  store i32 1, i32* %6, align 4
  br label %25

25:                                               ; preds = %97, %24
  %26 = load i32, i32* %6, align 4
  %27 = icmp sle i32 %26, 9
  br i1 %27, label %28, label %100

28:                                               ; preds = %25
  %29 = load i32, i32* %5, align 4
  %30 = sub nsw i32 %29, 1
  store i32 %30, i32* %8, align 4
  br label %31

31:                                               ; preds = %71, %28
  %32 = load i32, i32* %8, align 4
  %33 = load i32, i32* %5, align 4
  %34 = add nsw i32 %33, 1
  %35 = icmp sle i32 %32, %34
  br i1 %35, label %36, label %74

36:                                               ; preds = %31
  %37 = load i32, i32* %6, align 4
  %38 = sub nsw i32 %37, 1
  store i32 %38, i32* %9, align 4
  br label %39

39:                                               ; preds = %67, %36
  %40 = load i32, i32* %9, align 4
  %41 = load i32, i32* %6, align 4
  %42 = add nsw i32 %41, 1
  %43 = icmp sle i32 %40, %42
  br i1 %43, label %44, label %70

44:                                               ; preds = %39
  %45 = load i32, i32* %7, align 4
  %46 = sub nsw i32 %45, 1
  %47 = sext i32 %46 to i64
  %48 = getelementptr inbounds [5 x [11 x [11 x i32]]], [5 x [11 x [11 x i32]]]* %2, i64 0, i64 %47
  %49 = load i32, i32* %8, align 4
  %50 = sext i32 %49 to i64
  %51 = getelementptr inbounds [11 x [11 x i32]], [11 x [11 x i32]]* %48, i64 0, i64 %50
  %52 = load i32, i32* %9, align 4
  %53 = sext i32 %52 to i64
  %54 = getelementptr inbounds [11 x i32], [11 x i32]* %51, i64 0, i64 %53
  %55 = load i32, i32* %54, align 4
  %56 = load i32, i32* %7, align 4
  %57 = sext i32 %56 to i64
  %58 = getelementptr inbounds [5 x [11 x [11 x i32]]], [5 x [11 x [11 x i32]]]* %2, i64 0, i64 %57
  %59 = load i32, i32* %5, align 4
  %60 = sext i32 %59 to i64
  %61 = getelementptr inbounds [11 x [11 x i32]], [11 x [11 x i32]]* %58, i64 0, i64 %60
  %62 = load i32, i32* %6, align 4
  %63 = sext i32 %62 to i64
  %64 = getelementptr inbounds [11 x i32], [11 x i32]* %61, i64 0, i64 %63
  %65 = load i32, i32* %64, align 4
  %66 = add nsw i32 %65, %55
  store i32 %66, i32* %64, align 4
  br label %67

67:                                               ; preds = %44
  %68 = load i32, i32* %9, align 4
  %69 = add nsw i32 %68, 1
  store i32 %69, i32* %9, align 4
  br label %39

70:                                               ; preds = %39
  br label %71

71:                                               ; preds = %70
  %72 = load i32, i32* %8, align 4
  %73 = add nsw i32 %72, 1
  store i32 %73, i32* %8, align 4
  br label %31

74:                                               ; preds = %31
  %75 = load i32, i32* %7, align 4
  %76 = sub nsw i32 %75, 1
  %77 = sext i32 %76 to i64
  %78 = getelementptr inbounds [5 x [11 x [11 x i32]]], [5 x [11 x [11 x i32]]]* %2, i64 0, i64 %77
  %79 = load i32, i32* %5, align 4
  %80 = sext i32 %79 to i64
  %81 = getelementptr inbounds [11 x [11 x i32]], [11 x [11 x i32]]* %78, i64 0, i64 %80
  %82 = load i32, i32* %6, align 4
  %83 = sext i32 %82 to i64
  %84 = getelementptr inbounds [11 x i32], [11 x i32]* %81, i64 0, i64 %83
  %85 = load i32, i32* %84, align 4
  %86 = load i32, i32* %7, align 4
  %87 = sext i32 %86 to i64
  %88 = getelementptr inbounds [5 x [11 x [11 x i32]]], [5 x [11 x [11 x i32]]]* %2, i64 0, i64 %87
  %89 = load i32, i32* %5, align 4
  %90 = sext i32 %89 to i64
  %91 = getelementptr inbounds [11 x [11 x i32]], [11 x [11 x i32]]* %88, i64 0, i64 %90
  %92 = load i32, i32* %6, align 4
  %93 = sext i32 %92 to i64
  %94 = getelementptr inbounds [11 x i32], [11 x i32]* %91, i64 0, i64 %93
  %95 = load i32, i32* %94, align 4
  %96 = add nsw i32 %95, %85
  store i32 %96, i32* %94, align 4
  br label %97

97:                                               ; preds = %74
  %98 = load i32, i32* %6, align 4
  %99 = add nsw i32 %98, 1
  store i32 %99, i32* %6, align 4
  br label %25

100:                                              ; preds = %25
  br label %101

101:                                              ; preds = %100
  %102 = load i32, i32* %5, align 4
  %103 = add nsw i32 %102, 1
  store i32 %103, i32* %5, align 4
  br label %21

104:                                              ; preds = %21
  br label %105

105:                                              ; preds = %104
  %106 = load i32, i32* %7, align 4
  %107 = add nsw i32 %106, 1
  store i32 %107, i32* %7, align 4
  br label %16

108:                                              ; preds = %16
  store i32 1, i32* %5, align 4
  br label %109

109:                                              ; preds = %141, %108
  %110 = load i32, i32* %5, align 4
  %111 = icmp sle i32 %110, 9
  br i1 %111, label %112, label %144

112:                                              ; preds = %109
  store i32 1, i32* %6, align 4
  br label %113

113:                                              ; preds = %128, %112
  %114 = load i32, i32* %6, align 4
  %115 = icmp sle i32 %114, 8
  br i1 %115, label %116, label %131

116:                                              ; preds = %113
  %117 = load i32, i32* %4, align 4
  %118 = sext i32 %117 to i64
  %119 = getelementptr inbounds [5 x [11 x [11 x i32]]], [5 x [11 x [11 x i32]]]* %2, i64 0, i64 %118
  %120 = load i32, i32* %5, align 4
  %121 = sext i32 %120 to i64
  %122 = getelementptr inbounds [11 x [11 x i32]], [11 x [11 x i32]]* %119, i64 0, i64 %121
  %123 = load i32, i32* %6, align 4
  %124 = sext i32 %123 to i64
  %125 = getelementptr inbounds [11 x i32], [11 x i32]* %122, i64 0, i64 %124
  %126 = load i32, i32* %125, align 4
  %127 = call i32 (i8*, ...) @printf(i8* getelementptr inbounds ([4 x i8], [4 x i8]* @.str.1, i64 0, i64 0), i32 %126)
  br label %128

128:                                              ; preds = %116
  %129 = load i32, i32* %6, align 4
  %130 = add nsw i32 %129, 1
  store i32 %130, i32* %6, align 4
  br label %113

131:                                              ; preds = %113
  %132 = load i32, i32* %4, align 4
  %133 = sext i32 %132 to i64
  %134 = getelementptr inbounds [5 x [11 x [11 x i32]]], [5 x [11 x [11 x i32]]]* %2, i64 0, i64 %133
  %135 = load i32, i32* %5, align 4
  %136 = sext i32 %135 to i64
  %137 = getelementptr inbounds [11 x [11 x i32]], [11 x [11 x i32]]* %134, i64 0, i64 %136
  %138 = getelementptr inbounds [11 x i32], [11 x i32]* %137, i64 0, i64 9
  %139 = load i32, i32* %138, align 4
  %140 = call i32 (i8*, ...) @printf(i8* getelementptr inbounds ([4 x i8], [4 x i8]* @.str.2, i64 0, i64 0), i32 %139)
  br label %141

141:                                              ; preds = %131
  %142 = load i32, i32* %5, align 4
  %143 = add nsw i32 %142, 1
  store i32 %143, i32* %5, align 4
  br label %109

144:                                              ; preds = %109
  ret i32 0
}

; Function Attrs: argmemonly nounwind willreturn
declare void @llvm.memset.p0i8.i64(i8* nocapture writeonly, i8, i64, i1 immarg) #1

declare dso_local i32 @__isoc99_scanf(i8*, ...) #2

declare dso_local i32 @printf(i8*, ...) #2


!llvm.module.flags = !{!0}
!llvm.ident = !{!1}

!0 = !{i32 1, !"wchar_size", i32 4}
!1 = !{!"clang version 10.0.0-4ubuntu1 "}
