; ModuleID = 'source-C-CXX/47/60.c'
source_filename = "source-C-CXX/47/60.c"
target datalayout = "e-m:e-p270:32:32-p271:32:32-p272:64:64-i64:64-f80:128-n8:16:32:64-S128"
target triple = "x86_64-pc-linux-gnu"

@.str = private unnamed_addr constant [5 x i8] c"%d%d\00", align 1
@.str.1 = private unnamed_addr constant [4 x i8] c"%d \00", align 1
@.str.2 = private unnamed_addr constant [4 x i8] c"%d\0A\00", align 1

; Function Attrs: nofree nounwind sspstrong uwtable
define dso_local i32 @main() local_unnamed_addr #0 {
  %1 = alloca [5 x [11 x [11 x i32]]], align 16
  %2 = alloca i32, align 4
  %3 = alloca i32, align 4
  %4 = bitcast [5 x [11 x [11 x i32]]]* %1 to i8*
  call void @llvm.lifetime.start.p0i8(i64 2420, i8* nonnull %4) #4
  call void @llvm.memset.p0i8.i64(i8* noundef nonnull align 16 dereferenceable(2420) %4, i8 0, i64 2420, i1 false)
  %5 = bitcast i32* %2 to i8*
  call void @llvm.lifetime.start.p0i8(i64 4, i8* nonnull %5) #4
  %6 = bitcast i32* %3 to i8*
  call void @llvm.lifetime.start.p0i8(i64 4, i8* nonnull %6) #4
  %7 = call i32 (i8*, ...) @__isoc99_scanf(i8* getelementptr inbounds ([5 x i8], [5 x i8]* @.str, i64 0, i64 0), i32* nonnull %2, i32* nonnull %3)
  %8 = load i32, i32* %2, align 4, !tbaa !5
  %9 = getelementptr inbounds [5 x [11 x [11 x i32]]], [5 x [11 x [11 x i32]]]* %1, i64 0, i64 0, i64 5, i64 5
  store i32 %8, i32* %9, align 16, !tbaa !5
  %10 = load i32, i32* %3, align 4, !tbaa !5
  %11 = icmp slt i32 %10, 1
  br i1 %11, label %68, label %12

12:                                               ; preds = %0
  %13 = add nuw i32 %10, 1
  %14 = zext i32 %13 to i64
  br label %15

15:                                               ; preds = %12, %65
  %16 = phi i64 [ 1, %12 ], [ %66, %65 ]
  %17 = add nsw i64 %16, -1
  br label %18

18:                                               ; preds = %15, %62
  %19 = phi i64 [ 1, %15 ], [ %63, %62 ]
  %20 = phi i64 [ 0, %15 ], [ %21, %62 ]
  %21 = add nuw nsw i64 %20, 1
  %22 = add nuw nsw i64 %20, 2
  br label %23

23:                                               ; preds = %18, %23
  %24 = phi i64 [ 1, %18 ], [ %60, %23 ]
  %25 = phi i64 [ 0, %18 ], [ %31, %23 ]
  %26 = getelementptr inbounds [5 x [11 x [11 x i32]]], [5 x [11 x [11 x i32]]]* %1, i64 0, i64 %16, i64 %19, i64 %24
  %27 = getelementptr inbounds [5 x [11 x [11 x i32]]], [5 x [11 x [11 x i32]]]* %1, i64 0, i64 %17, i64 %20, i64 %25
  %28 = load i32, i32* %27, align 4, !tbaa !5
  %29 = load i32, i32* %26, align 4, !tbaa !5
  %30 = add nsw i32 %29, %28
  store i32 %30, i32* %26, align 4, !tbaa !5
  %31 = add nuw nsw i64 %25, 1
  %32 = getelementptr inbounds [5 x [11 x [11 x i32]]], [5 x [11 x [11 x i32]]]* %1, i64 0, i64 %17, i64 %20, i64 %31
  %33 = load i32, i32* %32, align 4, !tbaa !5
  %34 = add nsw i32 %30, %33
  store i32 %34, i32* %26, align 4, !tbaa !5
  %35 = add nuw nsw i64 %25, 2
  %36 = getelementptr inbounds [5 x [11 x [11 x i32]]], [5 x [11 x [11 x i32]]]* %1, i64 0, i64 %17, i64 %20, i64 %35
  %37 = load i32, i32* %36, align 4, !tbaa !5
  %38 = add nsw i32 %34, %37
  store i32 %38, i32* %26, align 4, !tbaa !5
  %39 = getelementptr inbounds [5 x [11 x [11 x i32]]], [5 x [11 x [11 x i32]]]* %1, i64 0, i64 %17, i64 %21, i64 %25
  %40 = load i32, i32* %39, align 4, !tbaa !5
  %41 = add nsw i32 %38, %40
  store i32 %41, i32* %26, align 4, !tbaa !5
  %42 = getelementptr inbounds [5 x [11 x [11 x i32]]], [5 x [11 x [11 x i32]]]* %1, i64 0, i64 %17, i64 %21, i64 %31
  %43 = load i32, i32* %42, align 4, !tbaa !5
  %44 = add nsw i32 %41, %43
  store i32 %44, i32* %26, align 4, !tbaa !5
  %45 = getelementptr inbounds [5 x [11 x [11 x i32]]], [5 x [11 x [11 x i32]]]* %1, i64 0, i64 %17, i64 %21, i64 %35
  %46 = load i32, i32* %45, align 4, !tbaa !5
  %47 = add nsw i32 %44, %46
  store i32 %47, i32* %26, align 4, !tbaa !5
  %48 = getelementptr inbounds [5 x [11 x [11 x i32]]], [5 x [11 x [11 x i32]]]* %1, i64 0, i64 %17, i64 %22, i64 %25
  %49 = load i32, i32* %48, align 4, !tbaa !5
  %50 = add nsw i32 %47, %49
  store i32 %50, i32* %26, align 4, !tbaa !5
  %51 = getelementptr inbounds [5 x [11 x [11 x i32]]], [5 x [11 x [11 x i32]]]* %1, i64 0, i64 %17, i64 %22, i64 %31
  %52 = load i32, i32* %51, align 4, !tbaa !5
  %53 = add nsw i32 %50, %52
  store i32 %53, i32* %26, align 4, !tbaa !5
  %54 = getelementptr inbounds [5 x [11 x [11 x i32]]], [5 x [11 x [11 x i32]]]* %1, i64 0, i64 %17, i64 %22, i64 %35
  %55 = load i32, i32* %54, align 4, !tbaa !5
  %56 = add nsw i32 %53, %55
  %57 = getelementptr inbounds [5 x [11 x [11 x i32]]], [5 x [11 x [11 x i32]]]* %1, i64 0, i64 %17, i64 %19, i64 %24
  %58 = load i32, i32* %57, align 4, !tbaa !5
  %59 = add nsw i32 %56, %58
  store i32 %59, i32* %26, align 4, !tbaa !5
  %60 = add nuw nsw i64 %24, 1
  %61 = icmp eq i64 %31, 9
  br i1 %61, label %62, label %23, !llvm.loop !9

62:                                               ; preds = %23
  %63 = add nuw nsw i64 %19, 1
  %64 = icmp eq i64 %21, 9
  br i1 %64, label %65, label %18, !llvm.loop !11

65:                                               ; preds = %62
  %66 = add nuw nsw i64 %16, 1
  %67 = icmp eq i64 %66, %14
  br i1 %67, label %68, label %15, !llvm.loop !12

68:                                               ; preds = %65, %0
  br label %69

69:                                               ; preds = %68, %118
  %70 = phi i32 [ %119, %118 ], [ %10, %68 ]
  %71 = phi i64 [ %116, %118 ], [ 1, %68 ]
  %72 = sext i32 %70 to i64
  %73 = getelementptr inbounds [5 x [11 x [11 x i32]]], [5 x [11 x [11 x i32]]]* %1, i64 0, i64 %72, i64 %71, i64 1
  %74 = load i32, i32* %73, align 4, !tbaa !5
  %75 = call i32 (i8*, ...) @printf(i8* nonnull dereferenceable(1) getelementptr inbounds ([4 x i8], [4 x i8]* @.str.1, i64 0, i64 0), i32 %74)
  %76 = load i32, i32* %3, align 4, !tbaa !5
  %77 = sext i32 %76 to i64
  %78 = getelementptr inbounds [5 x [11 x [11 x i32]]], [5 x [11 x [11 x i32]]]* %1, i64 0, i64 %77, i64 %71, i64 2
  %79 = load i32, i32* %78, align 4, !tbaa !5
  %80 = call i32 (i8*, ...) @printf(i8* nonnull dereferenceable(1) getelementptr inbounds ([4 x i8], [4 x i8]* @.str.1, i64 0, i64 0), i32 %79)
  %81 = load i32, i32* %3, align 4, !tbaa !5
  %82 = sext i32 %81 to i64
  %83 = getelementptr inbounds [5 x [11 x [11 x i32]]], [5 x [11 x [11 x i32]]]* %1, i64 0, i64 %82, i64 %71, i64 3
  %84 = load i32, i32* %83, align 4, !tbaa !5
  %85 = call i32 (i8*, ...) @printf(i8* nonnull dereferenceable(1) getelementptr inbounds ([4 x i8], [4 x i8]* @.str.1, i64 0, i64 0), i32 %84)
  %86 = load i32, i32* %3, align 4, !tbaa !5
  %87 = sext i32 %86 to i64
  %88 = getelementptr inbounds [5 x [11 x [11 x i32]]], [5 x [11 x [11 x i32]]]* %1, i64 0, i64 %87, i64 %71, i64 4
  %89 = load i32, i32* %88, align 4, !tbaa !5
  %90 = call i32 (i8*, ...) @printf(i8* nonnull dereferenceable(1) getelementptr inbounds ([4 x i8], [4 x i8]* @.str.1, i64 0, i64 0), i32 %89)
  %91 = load i32, i32* %3, align 4, !tbaa !5
  %92 = sext i32 %91 to i64
  %93 = getelementptr inbounds [5 x [11 x [11 x i32]]], [5 x [11 x [11 x i32]]]* %1, i64 0, i64 %92, i64 %71, i64 5
  %94 = load i32, i32* %93, align 4, !tbaa !5
  %95 = call i32 (i8*, ...) @printf(i8* nonnull dereferenceable(1) getelementptr inbounds ([4 x i8], [4 x i8]* @.str.1, i64 0, i64 0), i32 %94)
  %96 = load i32, i32* %3, align 4, !tbaa !5
  %97 = sext i32 %96 to i64
  %98 = getelementptr inbounds [5 x [11 x [11 x i32]]], [5 x [11 x [11 x i32]]]* %1, i64 0, i64 %97, i64 %71, i64 6
  %99 = load i32, i32* %98, align 4, !tbaa !5
  %100 = call i32 (i8*, ...) @printf(i8* nonnull dereferenceable(1) getelementptr inbounds ([4 x i8], [4 x i8]* @.str.1, i64 0, i64 0), i32 %99)
  %101 = load i32, i32* %3, align 4, !tbaa !5
  %102 = sext i32 %101 to i64
  %103 = getelementptr inbounds [5 x [11 x [11 x i32]]], [5 x [11 x [11 x i32]]]* %1, i64 0, i64 %102, i64 %71, i64 7
  %104 = load i32, i32* %103, align 4, !tbaa !5
  %105 = call i32 (i8*, ...) @printf(i8* nonnull dereferenceable(1) getelementptr inbounds ([4 x i8], [4 x i8]* @.str.1, i64 0, i64 0), i32 %104)
  %106 = load i32, i32* %3, align 4, !tbaa !5
  %107 = sext i32 %106 to i64
  %108 = getelementptr inbounds [5 x [11 x [11 x i32]]], [5 x [11 x [11 x i32]]]* %1, i64 0, i64 %107, i64 %71, i64 8
  %109 = load i32, i32* %108, align 4, !tbaa !5
  %110 = call i32 (i8*, ...) @printf(i8* nonnull dereferenceable(1) getelementptr inbounds ([4 x i8], [4 x i8]* @.str.1, i64 0, i64 0), i32 %109)
  %111 = load i32, i32* %3, align 4, !tbaa !5
  %112 = sext i32 %111 to i64
  %113 = getelementptr inbounds [5 x [11 x [11 x i32]]], [5 x [11 x [11 x i32]]]* %1, i64 0, i64 %112, i64 %71, i64 9
  %114 = load i32, i32* %113, align 4, !tbaa !5
  %115 = call i32 (i8*, ...) @printf(i8* nonnull dereferenceable(1) getelementptr inbounds ([4 x i8], [4 x i8]* @.str.2, i64 0, i64 0), i32 %114)
  %116 = add nuw nsw i64 %71, 1
  %117 = icmp eq i64 %116, 10
  br i1 %117, label %120, label %118, !llvm.loop !13

118:                                              ; preds = %69
  %119 = load i32, i32* %3, align 4, !tbaa !5
  br label %69

120:                                              ; preds = %69
  call void @llvm.lifetime.end.p0i8(i64 4, i8* nonnull %6) #4
  call void @llvm.lifetime.end.p0i8(i64 4, i8* nonnull %5) #4
  call void @llvm.lifetime.end.p0i8(i64 2420, i8* nonnull %4) #4
  ret i32 0
}

; Function Attrs: argmemonly mustprogress nofree nosync nounwind willreturn
declare void @llvm.lifetime.start.p0i8(i64 immarg, i8* nocapture) #1

; Function Attrs: argmemonly mustprogress nofree nounwind willreturn writeonly
declare void @llvm.memset.p0i8.i64(i8* nocapture writeonly, i8, i64, i1 immarg) #2

; Function Attrs: nofree nounwind
declare noundef i32 @__isoc99_scanf(i8* nocapture noundef readonly, ...) local_unnamed_addr #3

; Function Attrs: nofree nounwind
declare noundef i32 @printf(i8* nocapture noundef readonly, ...) local_unnamed_addr #3

; Function Attrs: argmemonly mustprogress nofree nosync nounwind willreturn
declare void @llvm.lifetime.end.p0i8(i64 immarg, i8* nocapture) #1


!llvm.module.flags = !{!0, !1, !2, !3}
!llvm.ident = !{!4}

!0 = !{i32 1, !"wchar_size", i32 4}
!1 = !{i32 7, !"PIC Level", i32 2}
!2 = !{i32 7, !"PIE Level", i32 2}
!3 = !{i32 7, !"uwtable", i32 1}
!4 = !{!"clang version 13.0.0"}
!5 = !{!6, !6, i64 0}
!6 = !{!"int", !7, i64 0}
!7 = !{!"omnipotent char", !8, i64 0}
!8 = !{!"Simple C/C++ TBAA"}
!9 = distinct !{!9, !10}
!10 = !{!"llvm.loop.mustprogress"}
!11 = distinct !{!11, !10}
!12 = distinct !{!12, !10}
!13 = distinct !{!13, !10}
